; Function Attrs: mustprogress nounwind uwtable
define void @_ZN6icu_7710ICUService17clearServiceCacheEv(ptr noundef nonnull align 8 captures(none) dereferenceable(120) %0) local_unnamed_addr #3 align 2 personality ptr @__gxx_personality_v0 {
  %2 = getelementptr inbounds nuw i8, ptr %0, i64 96
  %3 = load ptr, ptr %2, align 8, !tbaa !39
  %4 = icmp eq ptr %3, null
  br i1 %4, label %11, label %5

5:                                                ; preds = %1
  %6 = load ptr, ptr %3, align 8, !tbaa !21
  %.not.i = icmp eq ptr %6, null
  br i1 %.not.i, label %_ZN6icu_779HashtableD2Ev.exit, label %7

7:                                                ; preds = %5
  invoke void @uhash_close_77(ptr noundef nonnull %6)
          to label %_ZN6icu_779HashtableD2Ev.exit unwind label %8

8:                                                ; preds = %7
  %9 = landingpad { ptr, i32 }
          catch ptr null
  %10 = extractvalue { ptr, i32 } %9, 0
  tail call void @__clang_call_terminate(ptr %10) #18
  unreachable

_ZN6icu_779HashtableD2Ev.exit:                    ; preds = %5, %7
  tail call void @_ZN6icu_777UMemorydlEPv(ptr noundef nonnull %3) #17
  br label %11

11:                                               ; preds = %_ZN6icu_779HashtableD2Ev.exit, %1
  store ptr null, ptr %2, align 8, !tbaa !39
  ret void
}